
main.elf:     file format elf32-avr

Sections:
Idx Name          Size      VMA       LMA       File off  Algn
  0 .text         000001dc  00000000  00000000  00000074  2**1
                  CONTENTS, ALLOC, LOAD, READONLY, CODE
  1 .bss          00000003  00800060  00800060  00000250  2**0
                  ALLOC
  2 .debug_aranges 00000060  00000000  00000000  00000250  2**0
                  CONTENTS, READONLY, DEBUGGING
  3 .debug_pubnames 00000128  00000000  00000000  000002b0  2**0
                  CONTENTS, READONLY, DEBUGGING
  4 .debug_info   000002f7  00000000  00000000  000003d8  2**0
                  CONTENTS, READONLY, DEBUGGING
  5 .debug_abbrev 000001a1  00000000  00000000  000006cf  2**0
                  CONTENTS, READONLY, DEBUGGING
  6 .debug_line   00000354  00000000  00000000  00000870  2**0
                  CONTENTS, READONLY, DEBUGGING
  7 .debug_frame  000000f0  00000000  00000000  00000bc4  2**2
                  CONTENTS, READONLY, DEBUGGING
  8 .debug_str    0000018a  00000000  00000000  00000cb4  2**0
                  CONTENTS, READONLY, DEBUGGING
  9 .debug_loc    0000001e  00000000  00000000  00000e3e  2**0
                  CONTENTS, READONLY, DEBUGGING

Disassembly of section .text:

00000000 <__vectors>:
   0:	0e c0       	rjmp	.+28     	; 0x1e <__ctors_end>
   2:	1d c0       	rjmp	.+58     	; 0x3e <__bad_interrupt>
   4:	1c c0       	rjmp	.+56     	; 0x3e <__bad_interrupt>
   6:	1b c0       	rjmp	.+54     	; 0x3e <__bad_interrupt>
   8:	1a c0       	rjmp	.+52     	; 0x3e <__bad_interrupt>
   a:	19 c0       	rjmp	.+50     	; 0x3e <__bad_interrupt>
   c:	18 c0       	rjmp	.+48     	; 0x3e <__bad_interrupt>
   e:	17 c0       	rjmp	.+46     	; 0x3e <__bad_interrupt>
  10:	d3 c0       	rjmp	.+422    	; 0x1b8 <__vector_8>
  12:	15 c0       	rjmp	.+42     	; 0x3e <__bad_interrupt>
  14:	27 c0       	rjmp	.+78     	; 0x64 <__vector_10>
  16:	13 c0       	rjmp	.+38     	; 0x3e <__bad_interrupt>
  18:	12 c0       	rjmp	.+36     	; 0x3e <__bad_interrupt>
  1a:	2f c0       	rjmp	.+94     	; 0x7a <__vector_13>
  1c:	38 c0       	rjmp	.+112    	; 0x8e <__vector_14>

0000001e <__ctors_end>:
  1e:	11 24       	eor	r1, r1
  20:	1f be       	out	0x3f, r1	; 63
  22:	cf e5       	ldi	r28, 0x5F	; 95
  24:	d2 e0       	ldi	r29, 0x02	; 2
  26:	de bf       	out	0x3e, r29	; 62
  28:	cd bf       	out	0x3d, r28	; 61

0000002a <__do_clear_bss>:
  2a:	10 e0       	ldi	r17, 0x00	; 0
  2c:	a0 e6       	ldi	r26, 0x60	; 96
  2e:	b0 e0       	ldi	r27, 0x00	; 0
  30:	01 c0       	rjmp	.+2      	; 0x34 <.do_clear_bss_start>

00000032 <.do_clear_bss_loop>:
  32:	1d 92       	st	X+, r1

00000034 <.do_clear_bss_start>:
  34:	a3 36       	cpi	r26, 0x63	; 99
  36:	b1 07       	cpc	r27, r17
  38:	e1 f7       	brne	.-8      	; 0x32 <.do_clear_bss_loop>
  3a:	02 d0       	rcall	.+4      	; 0x40 <main>
  3c:	cd c0       	rjmp	.+410    	; 0x1d8 <_exit>

0000003e <__bad_interrupt>:
  3e:	e0 cf       	rjmp	.-64     	; 0x0 <__vectors>

00000040 <main>:
{
	/* Local Variables */
	unsigned char cmd = 0;
	
	/* Initialize software modules */
	adc_init();				/* Initialize ADC */
  40:	b0 d0       	rcall	.+352    	; 0x1a2 <adc_init>
	USI_SPI_initslave();	/* Initialize SPI as slave */
  42:	60 d0       	rcall	.+192    	; 0x104 <USI_SPI_initslave>
	
	sei();	/* Enable global interrupts */
  44:	78 94       	sei
	
	while(1)
	{
		if( !USI_SS )	/* if this SPI slave is selected */
  46:	b3 99       	sbic	0x16, 3	; 22
  48:	0a c0       	rjmp	.+20     	; 0x5e <main+0x1e>
		{
			USI_SPI_SSn(0);		/* Active low slave selected */
  4a:	80 e0       	ldi	r24, 0x00	; 0
  4c:	73 d0       	rcall	.+230    	; 0x134 <USI_SPI_SSn>
			cmd = USI_SPI_getc();
  4e:	a1 d0       	rcall	.+322    	; 0x192 <USI_SPI_getc>
			if( cmd == 'L' )	/* if the X axis is requested */
  50:	8c 34       	cpi	r24, 0x4C	; 76
  52:	c9 f7       	brne	.-14     	; 0x46 <main+0x6>
			{
				USI_SPI_putc(LIGHT);	// Send temp value to SPI and increment
  54:	80 91 60 00 	lds	r24, 0x0060
  58:	73 d0       	rcall	.+230    	; 0x140 <USI_SPI_putc>
				USI_SPI_wait();		// wait for transmission to finish
  5a:	9e d0       	rcall	.+316    	; 0x198 <USI_SPI_wait>
  5c:	f4 cf       	rjmp	.-24     	; 0x46 <main+0x6>
			}
			else{}	/* all other requests, do nothing */
		}
		else	/* if not selected, do nothing */
		{
			USI_SPI_SSn(1);		/* Active low slave not selected */
  5e:	81 e0       	ldi	r24, 0x01	; 1
  60:	69 d0       	rcall	.+210    	; 0x134 <USI_SPI_SSn>
  62:	f1 cf       	rjmp	.-30     	; 0x46 <main+0x6>

00000064 <__vector_10>:
 *  results in one clock period on the clock pin and for the USI counter.
 */
/*#pragma vector=TIMER0_COMP_vect */	/* Compiler specific directive */
/*__interrupt void timer0comp_handler()*/
ISR(TIMER0_COMPA_vect)
{
  64:	1f 92       	push	r1
  66:	0f 92       	push	r0
  68:	0f b6       	in	r0, 0x3f	; 63
  6a:	0f 92       	push	r0
  6c:	11 24       	eor	r1, r1
	USICR |= (1<<USITC);	// Toggle clock output pin.
  6e:	68 9a       	sbi	0x0d, 0	; 13
}
  70:	0f 90       	pop	r0
  72:	0f be       	out	0x3f, r0	; 63
  74:	0f 90       	pop	r0
  76:	1f 90       	pop	r1
  78:	18 95       	reti

0000007a <__vector_13>:

/* USI SPI start condition interrupt */
ISR(USI_START_vect)
{
  7a:	1f 92       	push	r1
  7c:	0f 92       	push	r0
  7e:	0f b6       	in	r0, 0x3f	; 63
  80:	0f 92       	push	r0
  82:	11 24       	eor	r1, r1
	/* not enabled */
}
  84:	0f 90       	pop	r0
  86:	0f be       	out	0x3f, r0	; 63
  88:	0f 90       	pop	r0
  8a:	1f 90       	pop	r1
  8c:	18 95       	reti

0000008e <__vector_14>:
 *  For all modes the USIDR contents are stored and flags are updated.
 */
/*#pragma vector=USI_OVF_vect*/	/* Compiler specific directive */
/*__interrupt void usiovf_handler()*/
ISR(USI_OVF_vect)
{
  8e:	1f 92       	push	r1
  90:	0f 92       	push	r0
  92:	0f b6       	in	r0, 0x3f	; 63
  94:	0f 92       	push	r0
  96:	11 24       	eor	r1, r1
  98:	8f 93       	push	r24
	// Master must now disable the compare match interrupt
	// to prevent more USI counter clocks.
	if( USI_SPI_status.masterMode == 1 ) {
  9a:	80 91 61 00 	lds	r24, 0x0061
  9e:	80 ff       	sbrs	r24, 0
  a0:	03 c0       	rjmp	.+6      	; 0xa8 <__vector_14+0x1a>
		TIMSK &= ~(1<<OCIE0A);
  a2:	89 b7       	in	r24, 0x39	; 57
  a4:	8f 7e       	andi	r24, 0xEF	; 239
  a6:	89 bf       	out	0x39, r24	; 57
	}
	
	// Update flags and clear USI counter
	USISR = (1<<USIOIF);
  a8:	80 e4       	ldi	r24, 0x40	; 64
  aa:	8e b9       	out	0x0e, r24	; 14
	USI_SPI_status.transferComplete = 1;
  ac:	80 91 61 00 	lds	r24, 0x0061
  b0:	82 60       	ori	r24, 0x02	; 2
  b2:	80 93 61 00 	sts	0x0061, r24

	// Copy USIDR to buffer to prevent overwrite on next transfer.
	storedUSIDR = USIDR;
  b6:	8f b1       	in	r24, 0x0f	; 15
  b8:	80 93 62 00 	sts	0x0062, r24
}
  bc:	8f 91       	pop	r24
  be:	0f 90       	pop	r0
  c0:	0f be       	out	0x3f, r0	; 63
  c2:	0f 90       	pop	r0
  c4:	1f 90       	pop	r1
  c6:	18 95       	reti

000000c8 <USI_SPI_initmaster>:
 *  \param spi_mode  Required SPI mode, must be 0 or 1.
 */
void USI_SPI_initmaster(void)
{
	// Configure port directions.
	USI_DIR_REG |= (1<<USI_DATAOUT_PIN) | (1<<USI_CLOCK_PIN); // Outputs.
  c8:	87 b3       	in	r24, 0x17	; 23
  ca:	86 60       	ori	r24, 0x06	; 6
  cc:	87 bb       	out	0x17, r24	; 23
	USI_DIR_REG &= ~(1<<USI_DATAIN_PIN);                      // Inputs.
  ce:	b8 98       	cbi	0x17, 0	; 23
	USI_OUT_REG |= (1<<USI_DATAIN_PIN);                       // Pull-ups.
  d0:	c0 9a       	sbi	0x18, 0	; 24
	
	// Configure USI to 3-wire master mode with overflow interrupt.
	USICR = (1<<USIOIE) | (1<<USIWM0) |
  d2:	8a e5       	ldi	r24, 0x5A	; 90
  d4:	8d b9       	out	0x0d, r24	; 13
	        (1<<USICS1) | (SPI_MODE<<USICS0) |
	        (1<<USICLK);

	// Enable 'Clear Timer on Compare match' and init prescaler.
	TCCR0A = (1<<WGM01);
  d6:	82 e0       	ldi	r24, 0x02	; 2
  d8:	8a bd       	out	0x2a, r24	; 42
	TCCR0B = TC0_PS_SETTING;
  da:	83 bf       	out	0x33, r24	; 51
	
	// Init Output Compare Register.
	OCR0A = TC0_COMPARE_VALUE;
  dc:	83 e0       	ldi	r24, 0x03	; 3
  de:	89 bd       	out	0x29, r24	; 41
	
	// Init driver status register.
	USI_SPI_status.masterMode       = 1;
  e0:	80 91 61 00 	lds	r24, 0x0061
  e4:	81 60       	ori	r24, 0x01	; 1
  e6:	80 93 61 00 	sts	0x0061, r24
	USI_SPI_status.transferComplete = 0;
  ea:	80 91 61 00 	lds	r24, 0x0061
  ee:	8d 7f       	andi	r24, 0xFD	; 253
  f0:	80 93 61 00 	sts	0x0061, r24
	USI_SPI_status.writeCollision   = 0;
  f4:	80 91 61 00 	lds	r24, 0x0061
  f8:	8b 7f       	andi	r24, 0xFB	; 251
  fa:	80 93 61 00 	sts	0x0061, r24
	
	storedUSIDR = 0;
  fe:	10 92 62 00 	sts	0x0062, r1
}
 102:	08 95       	ret

00000104 <USI_SPI_initslave>:
 */
void USI_SPI_initslave(void)
{
	// Configure port directions.
	//USI_DIR_REG |= (1<<USI_DATAOUT_PIN);                      // Outputs.
	USI_DIR_REG &= ~(1<<USI_DATAIN_PIN) | (1<<USI_CLOCK_PIN) | (1<<USI_SELECT_PIN); // Inputs.
 104:	b8 98       	cbi	0x17, 0	; 23
	USI_OUT_REG |= (1<<USI_DATAIN_PIN) | (1<<USI_CLOCK_PIN) | (1<<USI_SELECT_PIN);  // Pull-ups.
 106:	88 b3       	in	r24, 0x18	; 24
 108:	8d 60       	ori	r24, 0x0D	; 13
 10a:	88 bb       	out	0x18, r24	; 24
	
	// Configure USI to 3-wire slave mode with overflow interrupt.
	USICR = (1<<USIOIE) | (1<<USIWM0) |
 10c:	88 e5       	ldi	r24, 0x58	; 88
 10e:	8d b9       	out	0x0d, r24	; 13
	        (1<<USICS1) | (SPI_MODE<<USICS0);
	
	// Init driver status register.
	USI_SPI_status.masterMode       = 0;
 110:	80 91 61 00 	lds	r24, 0x0061
 114:	8e 7f       	andi	r24, 0xFE	; 254
 116:	80 93 61 00 	sts	0x0061, r24
	USI_SPI_status.transferComplete = 0;
 11a:	80 91 61 00 	lds	r24, 0x0061
 11e:	8d 7f       	andi	r24, 0xFD	; 253
 120:	80 93 61 00 	sts	0x0061, r24
	USI_SPI_status.writeCollision   = 0;
 124:	80 91 61 00 	lds	r24, 0x0061
 128:	8b 7f       	andi	r24, 0xFB	; 251
 12a:	80 93 61 00 	sts	0x0061, r24
	
	storedUSIDR = 0;
 12e:	10 92 62 00 	sts	0x0062, r1
}
 132:	08 95       	ret

00000134 <USI_SPI_SSn>:

/* Changes USI MISO between input and output when slave is selected or not */
void USI_SPI_SSn(unsigned char mode)
{
	if( mode == 0 )		/* Slave is selected */
 134:	88 23       	and	r24, r24
 136:	11 f4       	brne	.+4      	; 0x13c <USI_SPI_SSn+0x8>
	{
		USI_DIR_REG |= (1<<USI_DATAOUT_PIN);	/* Set MISO pin to output */
 138:	b9 9a       	sbi	0x17, 1	; 23
 13a:	08 95       	ret
	}
	else				/* Slave is not selected */
	{
		USI_DIR_REG &= ~(1<<USI_DATAOUT_PIN);	/* Set MISO pin to input w/o pull-up resistor */
 13c:	b9 98       	cbi	0x17, 1	; 23
 13e:	08 95       	ret

00000140 <USI_SPI_putc>:
 *  and return without altering the data registers.
 *
 *  \returns  0 if a write collision occurred, 1 otherwise.
 */
char USI_SPI_putc( unsigned char val )
{
 140:	28 2f       	mov	r18, r24
	// Check if transmission in progress,
	// i.e. USI counter unequal to zero.
	if( (USISR & 0x0F) != 0 ) {
 142:	8e b1       	in	r24, 0x0e	; 14
 144:	90 e0       	ldi	r25, 0x00	; 0
 146:	8f 70       	andi	r24, 0x0F	; 15
 148:	90 70       	andi	r25, 0x00	; 0
 14a:	89 2b       	or	r24, r25
 14c:	31 f0       	breq	.+12     	; 0x15a <USI_SPI_putc+0x1a>
		// Indicate write collision and return.
		USI_SPI_status.writeCollision = 1;
 14e:	80 91 61 00 	lds	r24, 0x0061
 152:	84 60       	ori	r24, 0x04	; 4
 154:	80 93 61 00 	sts	0x0061, r24
 158:	08 95       	ret
		return;
	}
	
	// Reinit flags.
	USI_SPI_status.transferComplete = 0;
 15a:	80 91 61 00 	lds	r24, 0x0061
 15e:	8d 7f       	andi	r24, 0xFD	; 253
 160:	80 93 61 00 	sts	0x0061, r24
	USI_SPI_status.writeCollision = 0;
 164:	80 91 61 00 	lds	r24, 0x0061
 168:	8b 7f       	andi	r24, 0xFB	; 251
 16a:	80 93 61 00 	sts	0x0061, r24

	// Put data in USI data register.
	USIDR = val;
 16e:	2f b9       	out	0x0f, r18	; 15
	
	// Master should now enable compare match interrupts.
	if( USI_SPI_status.masterMode == 1 ) {
 170:	80 91 61 00 	lds	r24, 0x0061
 174:	80 ff       	sbrs	r24, 0
 176:	06 c0       	rjmp	.+12     	; 0x184 <USI_SPI_putc+0x44>
		TIFR |= (1<<OCF0A);   // Clear compare match flag.
 178:	88 b7       	in	r24, 0x38	; 56
 17a:	80 61       	ori	r24, 0x10	; 16
 17c:	88 bf       	out	0x38, r24	; 56
		TIMSK |= (1<<OCIE0A); // Enable compare match interrupt.
 17e:	89 b7       	in	r24, 0x39	; 57
 180:	80 61       	ori	r24, 0x10	; 16
 182:	89 bf       	out	0x39, r24	; 57
	}

	if( USI_SPI_status.writeCollision == 0 ) return 1;
 184:	80 91 61 00 	lds	r24, 0x0061
 188:	86 95       	lsr	r24
 18a:	86 95       	lsr	r24
 18c:	80 95       	com	r24
 18e:	81 70       	andi	r24, 0x01	; 1
	return 0;
}
 190:	08 95       	ret

00000192 <USI_SPI_getc>:
 *  like you would read from the SPDR register in the native SPI module.
 */
unsigned char USI_SPI_getc(void)
{
	return storedUSIDR;
}
 192:	80 91 62 00 	lds	r24, 0x0062
 196:	08 95       	ret

00000198 <USI_SPI_wait>:
 *  This function waits until the transfer complete flag is set.
 *  Use this function like you would wait for the native SPI interrupt flag.
 */
void USI_SPI_wait(void)
{
	do {} while( USI_SPI_status.transferComplete == 0 );
 198:	80 91 61 00 	lds	r24, 0x0061
 19c:	81 ff       	sbrs	r24, 1
 19e:	fc cf       	rjmp	.-8      	; 0x198 <USI_SPI_wait>
 1a0:	08 95       	ret

000001a2 <adc_init>:
#include "proj_hdr.h"

/* Initialize ADC functionality */
void adc_init(void)
{
	ADMUX |= (0<<REFS1) | (0<<REFS0);	/* Vcc used as Vref, disconnect from PB0 */
 1a2:	87 b1       	in	r24, 0x07	; 7
 1a4:	87 b9       	out	0x07, r24	; 7
	ADMUX |= (1<<ADLAR);				/* ADC Left Adjust Result */
 1a6:	3d 9a       	sbi	0x07, 5	; 7
	ADMUX |= 2;							/* Single Ended Input ADC2 selected */
 1a8:	39 9a       	sbi	0x07, 1	; 7
	ADCSRA |= (1<<ADEN);				/* ADC Enabled */
 1aa:	37 9a       	sbi	0x06, 7	; 6
	ADCSRA |= (1<<ADIE);				/* ADC Interrupt Enabled */
 1ac:	33 9a       	sbi	0x06, 3	; 6
	ADCSRA |= 3;						/* 8MHz Clk/64 = 125kHz, ADC Prescaler */
 1ae:	86 b1       	in	r24, 0x06	; 6
 1b0:	83 60       	ori	r24, 0x03	; 3
 1b2:	86 b9       	out	0x06, r24	; 6
	
	ADC_START;	/* Start ADC Conversion */
 1b4:	36 9a       	sbi	0x06, 6	; 6
}
 1b6:	08 95       	ret

000001b8 <__vector_8>:

/* ADC finished conversion interrupt */
ISR(ADC_vect)
{
 1b8:	1f 92       	push	r1
 1ba:	0f 92       	push	r0
 1bc:	0f b6       	in	r0, 0x3f	; 63
 1be:	0f 92       	push	r0
 1c0:	11 24       	eor	r1, r1
 1c2:	8f 93       	push	r24
	LIGHT = ADCH;	/* Read ADC value into Range variable */
 1c4:	85 b1       	in	r24, 0x05	; 5
 1c6:	80 93 60 00 	sts	0x0060, r24
	ADC_START;	/* Start next ADC conversion */
 1ca:	36 9a       	sbi	0x06, 6	; 6
 1cc:	8f 91       	pop	r24
 1ce:	0f 90       	pop	r0
 1d0:	0f be       	out	0x3f, r0	; 63
 1d2:	0f 90       	pop	r0
 1d4:	1f 90       	pop	r1
 1d6:	18 95       	reti

000001d8 <_exit>:
 1d8:	f8 94       	cli

000001da <__stop_program>:
 1da:	ff cf       	rjmp	.-2      	; 0x1da <__stop_program>
